; Function Attrs: mustprogress uwtable
define hidden void @hb_draw_line_to(ptr noundef %0, ptr noundef %1, ptr noundef %2, float noundef %3, float noundef %4) local_unnamed_addr #0 {
  %6 = load i32, ptr %2, align 4
  %.not = icmp eq i32 %6, 0
  br i1 %.not, label %7, label %21

7:                                                ; preds = %5
  %8 = getelementptr inbounds i8, ptr %2, i64 12
  %9 = load float, ptr %8, align 4
  %10 = getelementptr inbounds i8, ptr %2, i64 16
  %11 = load float, ptr %10, align 4
  %12 = getelementptr inbounds i8, ptr %0, i64 16
  %13 = load ptr, ptr %12, align 8
  %14 = getelementptr inbounds i8, ptr %0, i64 56
  %15 = load ptr, ptr %14, align 8
  %.not.i.i = icmp eq ptr %15, null
  br i1 %.not.i.i, label %_ZN15hb_draw_funcs_t10start_pathEPvR15hb_draw_state_t.exit, label %16

16:                                               ; preds = %7
  %17 = load ptr, ptr %15, align 8
  br label %_ZN15hb_draw_funcs_t10start_pathEPvR15hb_draw_state_t.exit

_ZN15hb_draw_funcs_t10start_pathEPvR15hb_draw_state_t.exit: ; preds = %7, %16
  %18 = phi ptr [ %17, %16 ], [ null, %7 ]
  tail call void %13(ptr noundef nonnull %0, ptr noundef %1, ptr noundef nonnull %2, float noundef %9, float noundef %11, ptr noundef %18)
  store i32 1, ptr %2, align 4
  %19 = getelementptr inbounds i8, ptr %2, i64 4
  %20 = load <2 x float>, ptr %8, align 4
  store <2 x float> %20, ptr %19, align 4
  br label %21

21:                                               ; preds = %_ZN15hb_draw_funcs_t10start_pathEPvR15hb_draw_state_t.exit, %5
  %22 = getelementptr inbounds i8, ptr %0, i64 24
  %23 = load ptr, ptr %22, align 8
  %24 = getelementptr inbounds i8, ptr %0, i64 56
  %25 = load ptr, ptr %24, align 8
  %.not.i = icmp eq ptr %25, null
  br i1 %.not.i, label %_ZN15hb_draw_funcs_t12emit_line_toEPvR15hb_draw_state_tff.exit, label %26

26:                                               ; preds = %21
  %27 = getelementptr inbounds i8, ptr %25, i64 8
  %28 = load ptr, ptr %27, align 8
  br label %_ZN15hb_draw_funcs_t12emit_line_toEPvR15hb_draw_state_tff.exit

_ZN15hb_draw_funcs_t12emit_line_toEPvR15hb_draw_state_tff.exit: ; preds = %21, %26
  %29 = phi ptr [ %28, %26 ], [ null, %21 ]
  tail call void %23(ptr noundef nonnull %0, ptr noundef %1, ptr noundef nonnull %2, float noundef %3, float noundef %4, ptr noundef %29)
  %30 = getelementptr inbounds i8, ptr %2, i64 12
  store float %3, ptr %30, align 4
  %31 = getelementptr inbounds i8, ptr %2, i64 16
  store float %4, ptr %31, align 4
  ret void
}